target datalayout = "e-m:e-p270:32:32-p271:32:32-p272:64:64-i64:64-i128:128-f80:128-n8:16:32:64-S128"
target triple = "x86_64-pc-linux-gnu"

%"class.OpenSubdiv::v3_6_0::Bfr::Parameterization" = type { i8, i8, i16 }
%"class.OpenSubdiv::v3_6_0::Bfr::Tessellation" = type { %"class.OpenSubdiv::v3_6_0::Bfr::Parameterization", i8, i16, i32, i32, i32, i32, i32, i32, [2 x i32], ptr, [4 x i32] }

; Function Attrs: mustprogress nounwind uwtable
define linkonce_odr noundef i32 @_ZN10OpenSubdiv6v3_6_03Bfr3tri18countUniformCoordsEi(i32 noundef %0) #1 comdat align 2 {
  %2 = alloca i32, align 4
  store i32 %0, ptr %2, align 4
  %3 = load i32, ptr %2, align 4
  %4 = load i32, ptr %2, align 4
  %5 = add nsw i32 %4, 1
  %6 = mul nsw i32 %3, %5
  %7 = sdiv i32 %6, 2
  ret i32 %7
}

; Function Attrs: mustprogress uwtable
define noundef i32 @_ZN10OpenSubdiv6v3_6_03Bfr3tri21CountNonUniformFacetsEPKii(ptr noundef %0, i32 noundef %1) #0 align 2 {
  %3 = alloca ptr, align 8
  %4 = alloca i32, align 4
  %5 = alloca i32, align 4
  %6 = alloca i32, align 4
  %7 = alloca i32, align 4
  store ptr %0, ptr %3, align 8
  store i32 %1, ptr %4, align 4
  %8 = load i32, ptr %4, align 4
  %9 = sub nsw i32 %8, 3
  store i32 %9, ptr %5, align 4
  %10 = load i32, ptr %5, align 4
  %11 = icmp ne i32 %10, 0
  br i1 %11, label %12, label %15

12:                                               ; preds = %2
  %13 = load i32, ptr %5, align 4
  %14 = call noundef i32 @_ZN10OpenSubdiv6v3_6_03Bfr3tri18CountUniformFacetsEi(i32 noundef %13)
  br label %16

15:                                               ; preds = %2
  br label %16

16:                                               ; preds = %15, %12
  %17 = phi i32 [ %14, %12 ], [ 0, %15 ]
  store i32 %17, ptr %6, align 4
  %18 = load i32, ptr %5, align 4
  %19 = load ptr, ptr %3, align 8
  %20 = getelementptr inbounds i32, ptr %19, i64 0
  %21 = load i32, ptr %20, align 4
  %22 = add nsw i32 %18, %21
  %23 = load i32, ptr %5, align 4
  %24 = load ptr, ptr %3, align 8
  %25 = getelementptr inbounds i32, ptr %24, i64 1
  %26 = load i32, ptr %25, align 4
  %27 = add nsw i32 %23, %26
  %28 = add nsw i32 %22, %27
  %29 = load i32, ptr %5, align 4
  %30 = load ptr, ptr %3, align 8
  %31 = getelementptr inbounds i32, ptr %30, i64 2
  %32 = load i32, ptr %31, align 4
  %33 = add nsw i32 %29, %32
  %34 = add nsw i32 %28, %33
  store i32 %34, ptr %7, align 4
  %35 = load i32, ptr %6, align 4
  %36 = load i32, ptr %7, align 4
  %37 = add nsw i32 %35, %36
  ret i32 %37
}

; Function Attrs: mustprogress nounwind uwtable
define linkonce_odr noundef i32 @_ZN10OpenSubdiv6v3_6_03Bfr3tri18CountUniformFacetsEi(i32 noundef %0) #1 comdat align 2 {
  %2 = alloca i32, align 4
  store i32 %0, ptr %2, align 4
  %3 = load i32, ptr %2, align 4
  %4 = load i32, ptr %2, align 4
  %5 = mul nsw i32 %3, %4
  ret i32 %5
}

; Function Attrs: mustprogress uwtable
define linkonce_odr noundef i32 @_ZN10OpenSubdiv6v3_6_03Bfr3tri19CountInteriorCoordsEi(i32 noundef %0) #0 comdat align 2 {
  %2 = alloca i32, align 4
  store i32 %0, ptr %2, align 4
  %3 = load i32, ptr %2, align 4
  %4 = sub nsw i32 %3, 2
  %5 = call noundef i32 @_ZN10OpenSubdiv6v3_6_03Bfr3tri18countUniformCoordsEi(i32 noundef %4)
  ret i32 %5
}

; Function Attrs: mustprogress uwtable
define void @_ZN10OpenSubdiv6v3_6_03Bfr12Tessellation30initializeInventoryForParamTriEi(ptr noundef nonnull align 8 dereferenceable(64) %0, i32 noundef %1) #0 align 2 {
  %3 = alloca ptr, align 8
  %4 = alloca i32, align 4
  %5 = alloca i32, align 4
  store ptr %0, ptr %3, align 8
  store i32 %1, ptr %4, align 4
  %6 = load ptr, ptr %3, align 8
  %7 = getelementptr inbounds nuw %"class.OpenSubdiv::v3_6_0::Bfr::Tessellation", ptr %6, i32 0, i32 9
  %8 = getelementptr inbounds [2 x i32], ptr %7, i64 0, i64 0
  %9 = load i32, ptr %8, align 8
  store i32 %9, ptr %5, align 4
  %10 = getelementptr inbounds nuw %"class.OpenSubdiv::v3_6_0::Bfr::Tessellation", ptr %6, i32 0, i32 1
  %11 = load i8, ptr %10, align 4
  %12 = lshr i8 %11, 1
  %13 = and i8 %12, 1
  %14 = zext i8 %13 to i16
  %15 = icmp ne i16 %14, 0
  br i1 %15, label %16, label %34

16:                                               ; preds = %2
  %17 = load i32, ptr %5, align 4
  %18 = icmp sgt i32 %17, 1
  br i1 %18, label %19, label %26

19:                                               ; preds = %16
  %20 = load i32, ptr %5, align 4
  %21 = call noundef i32 @_ZN10OpenSubdiv6v3_6_03Bfr3tri19CountInteriorCoordsEi(i32 noundef %20)
  %22 = getelementptr inbounds nuw %"class.OpenSubdiv::v3_6_0::Bfr::Tessellation", ptr %6, i32 0, i32 7
  store i32 %21, ptr %22, align 8
  %23 = load i32, ptr %5, align 4
  %24 = call noundef i32 @_ZN10OpenSubdiv6v3_6_03Bfr3tri18CountUniformFacetsEi(i32 noundef %23)
  %25 = getelementptr inbounds nuw %"class.OpenSubdiv::v3_6_0::Bfr::Tessellation", ptr %6, i32 0, i32 8
  store i32 %24, ptr %25, align 4
  br label %33

26:                                               ; preds = %16
  %27 = getelementptr inbounds nuw %"class.OpenSubdiv::v3_6_0::Bfr::Tessellation", ptr %6, i32 0, i32 7
  store i32 0, ptr %27, align 8
  %28 = getelementptr inbounds nuw %"class.OpenSubdiv::v3_6_0::Bfr::Tessellation", ptr %6, i32 0, i32 8
  store i32 1, ptr %28, align 4
  %29 = getelementptr inbounds nuw %"class.OpenSubdiv::v3_6_0::Bfr::Tessellation", ptr %6, i32 0, i32 1
  %30 = load i8, ptr %29, align 4
  %31 = and i8 %30, -9
  %32 = or i8 %31, 8
  store i8 %32, ptr %29, align 4
  br label %33

33:                                               ; preds = %26, %19
  br label %55

34:                                               ; preds = %2
  %35 = load i32, ptr %5, align 4
  %36 = icmp sgt i32 %35, 2
  br i1 %36, label %37, label %46

37:                                               ; preds = %34
  %38 = load i32, ptr %5, align 4
  %39 = call noundef i32 @_ZN10OpenSubdiv6v3_6_03Bfr3tri19CountInteriorCoordsEi(i32 noundef %38)
  %40 = getelementptr inbounds nuw %"class.OpenSubdiv::v3_6_0::Bfr::Tessellation", ptr %6, i32 0, i32 7
  store i32 %39, ptr %40, align 8
  %41 = getelementptr inbounds nuw %"class.OpenSubdiv::v3_6_0::Bfr::Tessellation", ptr %6, i32 0, i32 10
  %42 = load ptr, ptr %41, align 8
  %43 = load i32, ptr %5, align 4
  %44 = call noundef i32 @_ZN10OpenSubdiv6v3_6_03Bfr3tri21CountNonUniformFacetsEPKii(ptr noundef %42, i32 noundef %43)
  %45 = getelementptr inbounds nuw %"class.OpenSubdiv::v3_6_0::Bfr::Tessellation", ptr %6, i32 0, i32 8
  store i32 %44, ptr %45, align 4
  br label %54

46:                                               ; preds = %34
  %47 = getelementptr inbounds nuw %"class.OpenSubdiv::v3_6_0::Bfr::Tessellation", ptr %6, i32 0, i32 7
  store i32 1, ptr %47, align 8
  %48 = load i32, ptr %4, align 4
  %49 = getelementptr inbounds nuw %"class.OpenSubdiv::v3_6_0::Bfr::Tessellation", ptr %6, i32 0, i32 8
  store i32 %48, ptr %49, align 4
  %50 = getelementptr inbounds nuw %"class.OpenSubdiv::v3_6_0::Bfr::Tessellation", ptr %6, i32 0, i32 1
  %51 = load i8, ptr %50, align 4
  %52 = and i8 %51, -33
  %53 = or i8 %52, 32
  store i8 %53, ptr %50, align 4
  br label %54

54:                                               ; preds = %46, %37
  br label %55

55:                                               ; preds = %54, %33
  %56 = load i32, ptr %4, align 4
  %57 = getelementptr inbounds nuw %"class.OpenSubdiv::v3_6_0::Bfr::Tessellation", ptr %6, i32 0, i32 6
  store i32 %56, ptr %57, align 4
  ret void
}