; Function Attrs: mustprogress nofree norecurse nosync nounwind willreturn memory(read, argmem: readwrite, inaccessiblemem: none) uwtable
define void @_ZN10OpenSubdiv6v3_6_03Bfr12Tessellation30initializeInventoryForParamTriEi(ptr nocapture noundef nonnull align 8 dereferenceable(64) %0, i32 noundef %1) local_unnamed_addr #8 align 2 {
  %3 = getelementptr inbounds nuw i8, ptr %0, i64 32
  %4 = load i32, ptr %3, align 8
  %5 = getelementptr inbounds nuw i8, ptr %0, i64 4
  %6 = load i8, ptr %5, align 4
  %7 = and i8 %6, 2
  %.not = icmp eq i8 %7, 0
  br i1 %.not, label %22, label %8

8:                                                ; preds = %2
  %9 = icmp sgt i32 %4, 1
  br i1 %9, label %10, label %18

10:                                               ; preds = %8
  %11 = add nsw i32 %4, -2
  %12 = add nsw i32 %4, -1
  %13 = mul nsw i32 %12, %11
  %14 = lshr i32 %13, 1
  %15 = getelementptr inbounds nuw i8, ptr %0, i64 24
  store i32 %14, ptr %15, align 8
  %16 = mul nuw nsw i32 %4, %4
  %17 = getelementptr inbounds nuw i8, ptr %0, i64 28
  store i32 %16, ptr %17, align 4
  br label %46

18:                                               ; preds = %8
  %19 = getelementptr inbounds nuw i8, ptr %0, i64 24
  store i32 0, ptr %19, align 8
  %20 = getelementptr inbounds nuw i8, ptr %0, i64 28
  store i32 1, ptr %20, align 4
  %21 = or i8 %6, 8
  store i8 %21, ptr %5, align 4
  br label %46

22:                                               ; preds = %2
  %23 = icmp sgt i32 %4, 2
  br i1 %23, label %24, label %42

24:                                               ; preds = %22
  %25 = add nsw i32 %4, -2
  %26 = add nsw i32 %4, -1
  %27 = mul nsw i32 %26, %25
  %28 = lshr i32 %27, 1
  %29 = getelementptr inbounds nuw i8, ptr %0, i64 24
  store i32 %28, ptr %29, align 8
  %30 = getelementptr inbounds nuw i8, ptr %0, i64 40
  %31 = load ptr, ptr %30, align 8
  %32 = add nsw i32 %4, -3
  %33 = load i32, ptr %31, align 4
  %34 = getelementptr inbounds i8, ptr %31, i64 4
  %35 = load i32, ptr %34, align 4
  %36 = getelementptr inbounds i8, ptr %31, i64 8
  %37 = load i32, ptr %36, align 4
  %reass.mul.i = mul i32 %32, %4
  %38 = add i32 %33, %reass.mul.i
  %39 = add i32 %38, %35
  %40 = add i32 %39, %37
  %41 = getelementptr inbounds nuw i8, ptr %0, i64 28
  store i32 %40, ptr %41, align 4
  br label %46

42:                                               ; preds = %22
  %43 = getelementptr inbounds nuw i8, ptr %0, i64 24
  store i32 1, ptr %43, align 8
  %44 = getelementptr inbounds nuw i8, ptr %0, i64 28
  store i32 %1, ptr %44, align 4
  %45 = or i8 %6, 32
  store i8 %45, ptr %5, align 4
  br label %46

46:                                               ; preds = %24, %42, %10, %18
  %47 = getelementptr inbounds nuw i8, ptr %0, i64 20
  store i32 %1, ptr %47, align 4
  ret void
}